target datalayout = "e-m:e-p270:32:32-p271:32:32-p272:64:64-i64:64-i128:128-f80:128-n8:16:32:64-S128"
target triple = "x86_64-pc-linux-gnu"

%class.quantifier_hoister = type { ptr }

; Function Attrs: mustprogress uwtable
define linkonce_odr hidden void @_ZN18quantifier_hoister4implclEP4exprR10ref_vectorI3app11ast_managerERbR7obj_refIS1_S5_Ebb(ptr noundef nonnull align 8 dereferenceable(80) %0, ptr noundef %1, ptr noundef nonnull align 8 dereferenceable(16) %2, ptr noundef nonnull align 1 dereferenceable(1) %3, ptr noundef nonnull align 8 dereferenceable(16) %4, i1 noundef zeroext %5, i1 noundef zeroext %6) #4 comdat align 2 {
  %8 = alloca ptr, align 8
  %9 = alloca ptr, align 8
  %10 = alloca ptr, align 8
  %11 = alloca ptr, align 8
  %12 = alloca ptr, align 8
  %13 = alloca i8, align 1
  %14 = alloca i8, align 1
  %15 = alloca i32, align 4
  store ptr %0, ptr %8, align 8, !tbaa !13
  store ptr %1, ptr %9, align 8, !tbaa !14
  store ptr %2, ptr %10, align 8, !tbaa !16
  store ptr %3, ptr %11, align 8, !tbaa !18
  store ptr %4, ptr %12, align 8, !tbaa !20
  %16 = zext i1 %5 to i8
  store i8 %16, ptr %13, align 1, !tbaa !22
  %17 = zext i1 %6 to i8
  store i8 %17, ptr %14, align 1, !tbaa !22
  %18 = load ptr, ptr %8, align 8
  call void @llvm.lifetime.start.p0(i64 4, ptr %15) #3
  store i32 64, ptr %15, align 4, !tbaa !26
  %19 = load ptr, ptr %9, align 8, !tbaa !14
  %20 = load ptr, ptr %10, align 8, !tbaa !16
  %21 = load ptr, ptr %12, align 8, !tbaa !20
  %22 = load i8, ptr %13, align 1, !tbaa !22, !range !24, !noundef !25
  %23 = trunc i8 %22 to i1
  %24 = load i8, ptr %14, align 1, !tbaa !22, !range !24, !noundef !25
  %25 = trunc i8 %24 to i1
  call void @_ZN18quantifier_hoister4impl15pull_quantifierEP4exprRNS0_15quantifier_typeER10ref_vectorI3app11ast_managerER7obj_refIS1_S7_Ebb(ptr noundef nonnull align 8 dereferenceable(80) %18, ptr noundef %19, ptr noundef nonnull align 4 dereferenceable(4) %15, ptr noundef nonnull align 8 dereferenceable(16) %20, ptr noundef nonnull align 8 dereferenceable(16) %21, i1 noundef zeroext %23, i1 noundef zeroext %25)
  %26 = load i32, ptr %15, align 4, !tbaa !26
  %27 = icmp eq i32 16, %26
  %28 = load ptr, ptr %11, align 8, !tbaa !18
  %29 = zext i1 %27 to i8
  store i8 %29, ptr %28, align 1, !tbaa !22
  call void @llvm.lifetime.end.p0(i64 4, ptr %15) #3
  ret void
}

; Function Attrs: mustprogress uwtable
define hidden void @_ZN18quantifier_hoisterclEP4exprR10ref_vectorI3app11ast_managerERbR7obj_refIS0_S4_Ebb(ptr noundef nonnull align 8 dereferenceable(8) %0, ptr noundef %1, ptr noundef nonnull align 8 dereferenceable(16) %2, ptr noundef nonnull align 1 dereferenceable(1) %3, ptr noundef nonnull align 8 dereferenceable(16) %4, i1 noundef zeroext %5, i1 noundef zeroext %6) #4 align 2 {
  %8 = alloca ptr, align 8
  %9 = alloca ptr, align 8
  %10 = alloca ptr, align 8
  %11 = alloca ptr, align 8
  %12 = alloca ptr, align 8
  %13 = alloca i8, align 1
  %14 = alloca i8, align 1
  store ptr %0, ptr %8, align 8, !tbaa !3
  store ptr %1, ptr %9, align 8, !tbaa !14
  store ptr %2, ptr %10, align 8, !tbaa !16
  store ptr %3, ptr %11, align 8, !tbaa !18
  store ptr %4, ptr %12, align 8, !tbaa !20
  %15 = zext i1 %5 to i8
  store i8 %15, ptr %13, align 1, !tbaa !22
  %16 = zext i1 %6 to i8
  store i8 %16, ptr %14, align 1, !tbaa !22
  %17 = load ptr, ptr %8, align 8
  %18 = getelementptr inbounds nuw %class.quantifier_hoister, ptr %17, i32 0, i32 0
  %19 = load ptr, ptr %18, align 8, !tbaa !10
  %20 = load ptr, ptr %9, align 8, !tbaa !14
  %21 = load ptr, ptr %10, align 8, !tbaa !16
  %22 = load ptr, ptr %11, align 8, !tbaa !18
  %23 = load ptr, ptr %12, align 8, !tbaa !20
  %24 = load i8, ptr %13, align 1, !tbaa !22, !range !24, !noundef !25
  %25 = trunc i8 %24 to i1
  %26 = load i8, ptr %14, align 1, !tbaa !22, !range !24, !noundef !25
  %27 = trunc i8 %26 to i1
  call void @_ZN18quantifier_hoister4implclEP4exprR10ref_vectorI3app11ast_managerERbR7obj_refIS1_S5_Ebb(ptr noundef nonnull align 8 dereferenceable(80) %19, ptr noundef %20, ptr noundef nonnull align 8 dereferenceable(16) %21, ptr noundef nonnull align 1 dereferenceable(1) %22, ptr noundef nonnull align 8 dereferenceable(16) %23, i1 noundef zeroext %25, i1 noundef zeroext %27)
  ret void
}