; Function Attrs: mustprogress uwtable
define hidden void @_ZN18quantifier_hoisterclEP4exprR10ref_vectorI3app11ast_managerERbR7obj_refIS0_S4_Ebb(ptr noundef nonnull readonly align 8 captures(none) dereferenceable(8) %0, ptr noundef %1, ptr noundef nonnull align 8 dereferenceable(16) %2, ptr noundef nonnull writeonly align 1 captures(none) dereferenceable(1) initializes((0, 1)) %3, ptr noundef nonnull align 8 dereferenceable(16) %4, i1 noundef zeroext %5, i1 noundef zeroext %6) local_unnamed_addr #3 align 2 {
  %8 = alloca i32, align 4
  %9 = load ptr, ptr %0, align 8, !tbaa !3
  call void @llvm.lifetime.start.p0(i64 4, ptr nonnull %8) #18
  store i32 64, ptr %8, align 4, !tbaa !27
  call void @_ZN18quantifier_hoister4impl15pull_quantifierEP4exprRNS0_15quantifier_typeER10ref_vectorI3app11ast_managerER7obj_refIS1_S7_Ebb(ptr noundef nonnull align 8 dereferenceable(80) %9, ptr noundef %1, ptr noundef nonnull align 4 dereferenceable(4) %8, ptr noundef nonnull align 8 dereferenceable(16) %2, ptr noundef nonnull align 8 dereferenceable(16) %4, i1 noundef zeroext %5, i1 noundef zeroext %6)
  %10 = load i32, ptr %8, align 4, !tbaa !27
  %11 = icmp eq i32 %10, 16
  %12 = zext i1 %11 to i8
  store i8 %12, ptr %3, align 1, !tbaa !29
  call void @llvm.lifetime.end.p0(i64 4, ptr nonnull %8) #18
  ret void
}